; ModuleID = 'source-C-CXX/10/390.c'
source_filename = "source-C-CXX/10/390.c"
target datalayout = "e-m:e-p270:32:32-p271:32:32-p272:64:64-i64:64-f80:128-n8:16:32:64-S128"
target triple = "x86_64-pc-linux-gnu"

@__const.main.A = private unnamed_addr constant [12 x i32] [i32 31, i32 28, i32 31, i32 30, i32 31, i32 30, i32 31, i32 31, i32 30, i32 31, i32 30, i32 31], align 16
@__const.main.B = private unnamed_addr constant [12 x i32] [i32 31, i32 29, i32 31, i32 30, i32 31, i32 30, i32 31, i32 31, i32 30, i32 31, i32 30, i32 31], align 16
@.str = private unnamed_addr constant [7 x i8] c"%d%d%d\00", align 1
@.str.1 = private unnamed_addr constant [3 x i8] c"%d\00", align 1

; Function Attrs: nofree nounwind sspstrong uwtable
define dso_local i32 @main() local_unnamed_addr #0 {
  %1 = alloca i32, align 4
  %2 = alloca i32, align 4
  %3 = alloca i32, align 4
  %4 = bitcast i32* %1 to i8*
  call void @llvm.lifetime.start.p0i8(i64 4, i8* nonnull %4) #4
  %5 = bitcast i32* %2 to i8*
  call void @llvm.lifetime.start.p0i8(i64 4, i8* nonnull %5) #4
  %6 = bitcast i32* %3 to i8*
  call void @llvm.lifetime.start.p0i8(i64 4, i8* nonnull %6) #4
  %7 = call i32 (i8*, ...) @__isoc99_scanf(i8* getelementptr inbounds ([7 x i8], [7 x i8]* @.str, i64 0, i64 0), i32* nonnull %1, i32* nonnull %2, i32* nonnull %3)
  %8 = load i32, i32* %3, align 4, !tbaa !5
  %9 = load i32, i32* %1, align 4, !tbaa !5
  %10 = and i32 %9, 3
  %11 = icmp eq i32 %10, 0
  %12 = srem i32 %9, 100
  %13 = icmp ne i32 %12, 0
  %14 = and i1 %11, %13
  %15 = srem i32 %9, 400
  %16 = icmp eq i32 %15, 0
  %17 = select i1 %14, i1 true, i1 %16
  %18 = load i32, i32* %2, align 4, !tbaa !5
  %19 = icmp sgt i32 %18, 1
  br i1 %17, label %110, label %20

20:                                               ; preds = %0
  br i1 %19, label %21, label %216

21:                                               ; preds = %20
  %22 = add nsw i32 %18, -1
  %23 = zext i32 %22 to i64
  %24 = icmp ult i32 %22, 8
  br i1 %24, label %107, label %25

25:                                               ; preds = %21
  %26 = and i64 %23, 4294967288
  %27 = insertelement <4 x i32> <i32 poison, i32 0, i32 0, i32 0>, i32 %8, i32 0
  %28 = add nsw i64 %26, -8
  %29 = lshr exact i64 %28, 3
  %30 = add nuw nsw i64 %29, 1
  %31 = and i64 %30, 3
  %32 = icmp ult i64 %28, 24
  br i1 %32, label %78, label %33

33:                                               ; preds = %25
  %34 = and i64 %30, 4611686018427387900
  br label %35

35:                                               ; preds = %35, %33
  %36 = phi i64 [ 0, %33 ], [ %75, %35 ]
  %37 = phi <4 x i32> [ %27, %33 ], [ %73, %35 ]
  %38 = phi <4 x i32> [ zeroinitializer, %33 ], [ %74, %35 ]
  %39 = phi i64 [ %34, %33 ], [ %76, %35 ]
  %40 = getelementptr inbounds [12 x i32], [12 x i32]* @__const.main.A, i64 0, i64 %36
  %41 = bitcast i32* %40 to <4 x i32>*
  %42 = load <4 x i32>, <4 x i32>* %41, align 16, !tbaa !5
  %43 = getelementptr inbounds i32, i32* %40, i64 4
  %44 = bitcast i32* %43 to <4 x i32>*
  %45 = load <4 x i32>, <4 x i32>* %44, align 16, !tbaa !5
  %46 = add <4 x i32> %42, %37
  %47 = add <4 x i32> %45, %38
  %48 = or i64 %36, 8
  %49 = getelementptr inbounds [12 x i32], [12 x i32]* @__const.main.A, i64 0, i64 %48
  %50 = bitcast i32* %49 to <4 x i32>*
  %51 = load <4 x i32>, <4 x i32>* %50, align 16, !tbaa !5
  %52 = getelementptr inbounds i32, i32* %49, i64 4
  %53 = bitcast i32* %52 to <4 x i32>*
  %54 = load <4 x i32>, <4 x i32>* %53, align 16, !tbaa !5
  %55 = add <4 x i32> %51, %46
  %56 = add <4 x i32> %54, %47
  %57 = or i64 %36, 16
  %58 = getelementptr inbounds [12 x i32], [12 x i32]* @__const.main.A, i64 0, i64 %57
  %59 = bitcast i32* %58 to <4 x i32>*
  %60 = load <4 x i32>, <4 x i32>* %59, align 16, !tbaa !5
  %61 = getelementptr inbounds i32, i32* %58, i64 4
  %62 = bitcast i32* %61 to <4 x i32>*
  %63 = load <4 x i32>, <4 x i32>* %62, align 16, !tbaa !5
  %64 = add <4 x i32> %60, %55
  %65 = add <4 x i32> %63, %56
  %66 = or i64 %36, 24
  %67 = getelementptr inbounds [12 x i32], [12 x i32]* @__const.main.A, i64 0, i64 %66
  %68 = bitcast i32* %67 to <4 x i32>*
  %69 = load <4 x i32>, <4 x i32>* %68, align 16, !tbaa !5
  %70 = getelementptr inbounds i32, i32* %67, i64 4
  %71 = bitcast i32* %70 to <4 x i32>*
  %72 = load <4 x i32>, <4 x i32>* %71, align 16, !tbaa !5
  %73 = add <4 x i32> %69, %64
  %74 = add <4 x i32> %72, %65
  %75 = add nuw i64 %36, 32
  %76 = add i64 %39, -4
  %77 = icmp eq i64 %76, 0
  br i1 %77, label %78, label %35, !llvm.loop !9

78:                                               ; preds = %35, %25
  %79 = phi <4 x i32> [ undef, %25 ], [ %73, %35 ]
  %80 = phi <4 x i32> [ undef, %25 ], [ %74, %35 ]
  %81 = phi i64 [ 0, %25 ], [ %75, %35 ]
  %82 = phi <4 x i32> [ %27, %25 ], [ %73, %35 ]
  %83 = phi <4 x i32> [ zeroinitializer, %25 ], [ %74, %35 ]
  %84 = icmp eq i64 %31, 0
  br i1 %84, label %101, label %85

85:                                               ; preds = %78, %85
  %86 = phi i64 [ %98, %85 ], [ %81, %78 ]
  %87 = phi <4 x i32> [ %96, %85 ], [ %82, %78 ]
  %88 = phi <4 x i32> [ %97, %85 ], [ %83, %78 ]
  %89 = phi i64 [ %99, %85 ], [ %31, %78 ]
  %90 = getelementptr inbounds [12 x i32], [12 x i32]* @__const.main.A, i64 0, i64 %86
  %91 = bitcast i32* %90 to <4 x i32>*
  %92 = load <4 x i32>, <4 x i32>* %91, align 16, !tbaa !5
  %93 = getelementptr inbounds i32, i32* %90, i64 4
  %94 = bitcast i32* %93 to <4 x i32>*
  %95 = load <4 x i32>, <4 x i32>* %94, align 16, !tbaa !5
  %96 = add <4 x i32> %92, %87
  %97 = add <4 x i32> %95, %88
  %98 = add nuw i64 %86, 8
  %99 = add i64 %89, -1
  %100 = icmp eq i64 %99, 0
  br i1 %100, label %101, label %85, !llvm.loop !12

101:                                              ; preds = %85, %78
  %102 = phi <4 x i32> [ %79, %78 ], [ %96, %85 ]
  %103 = phi <4 x i32> [ %80, %78 ], [ %97, %85 ]
  %104 = add <4 x i32> %103, %102
  %105 = call i32 @llvm.vector.reduce.add.v4i32(<4 x i32> %104)
  %106 = icmp eq i64 %26, %23
  br i1 %106, label %216, label %107

107:                                              ; preds = %21, %101
  %108 = phi i64 [ 0, %21 ], [ %26, %101 ]
  %109 = phi i32 [ %8, %21 ], [ %105, %101 ]
  br label %208

110:                                              ; preds = %0
  br i1 %19, label %111, label %216

111:                                              ; preds = %110
  %112 = add nsw i32 %18, -1
  %113 = zext i32 %112 to i64
  %114 = icmp ult i32 %112, 8
  br i1 %114, label %197, label %115

115:                                              ; preds = %111
  %116 = and i64 %113, 4294967288
  %117 = insertelement <4 x i32> <i32 poison, i32 0, i32 0, i32 0>, i32 %8, i32 0
  %118 = add nsw i64 %116, -8
  %119 = lshr exact i64 %118, 3
  %120 = add nuw nsw i64 %119, 1
  %121 = and i64 %120, 3
  %122 = icmp ult i64 %118, 24
  br i1 %122, label %168, label %123

123:                                              ; preds = %115
  %124 = and i64 %120, 4611686018427387900
  br label %125

125:                                              ; preds = %125, %123
  %126 = phi i64 [ 0, %123 ], [ %165, %125 ]
  %127 = phi <4 x i32> [ %117, %123 ], [ %163, %125 ]
  %128 = phi <4 x i32> [ zeroinitializer, %123 ], [ %164, %125 ]
  %129 = phi i64 [ %124, %123 ], [ %166, %125 ]
  %130 = getelementptr inbounds [12 x i32], [12 x i32]* @__const.main.B, i64 0, i64 %126
  %131 = bitcast i32* %130 to <4 x i32>*
  %132 = load <4 x i32>, <4 x i32>* %131, align 16, !tbaa !5
  %133 = getelementptr inbounds i32, i32* %130, i64 4
  %134 = bitcast i32* %133 to <4 x i32>*
  %135 = load <4 x i32>, <4 x i32>* %134, align 16, !tbaa !5
  %136 = add <4 x i32> %132, %127
  %137 = add <4 x i32> %135, %128
  %138 = or i64 %126, 8
  %139 = getelementptr inbounds [12 x i32], [12 x i32]* @__const.main.B, i64 0, i64 %138
  %140 = bitcast i32* %139 to <4 x i32>*
  %141 = load <4 x i32>, <4 x i32>* %140, align 16, !tbaa !5
  %142 = getelementptr inbounds i32, i32* %139, i64 4
  %143 = bitcast i32* %142 to <4 x i32>*
  %144 = load <4 x i32>, <4 x i32>* %143, align 16, !tbaa !5
  %145 = add <4 x i32> %141, %136
  %146 = add <4 x i32> %144, %137
  %147 = or i64 %126, 16
  %148 = getelementptr inbounds [12 x i32], [12 x i32]* @__const.main.B, i64 0, i64 %147
  %149 = bitcast i32* %148 to <4 x i32>*
  %150 = load <4 x i32>, <4 x i32>* %149, align 16, !tbaa !5
  %151 = getelementptr inbounds i32, i32* %148, i64 4
  %152 = bitcast i32* %151 to <4 x i32>*
  %153 = load <4 x i32>, <4 x i32>* %152, align 16, !tbaa !5
  %154 = add <4 x i32> %150, %145
  %155 = add <4 x i32> %153, %146
  %156 = or i64 %126, 24
  %157 = getelementptr inbounds [12 x i32], [12 x i32]* @__const.main.B, i64 0, i64 %156
  %158 = bitcast i32* %157 to <4 x i32>*
  %159 = load <4 x i32>, <4 x i32>* %158, align 16, !tbaa !5
  %160 = getelementptr inbounds i32, i32* %157, i64 4
  %161 = bitcast i32* %160 to <4 x i32>*
  %162 = load <4 x i32>, <4 x i32>* %161, align 16, !tbaa !5
  %163 = add <4 x i32> %159, %154
  %164 = add <4 x i32> %162, %155
  %165 = add nuw i64 %126, 32
  %166 = add i64 %129, -4
  %167 = icmp eq i64 %166, 0
  br i1 %167, label %168, label %125, !llvm.loop !14

168:                                              ; preds = %125, %115
  %169 = phi <4 x i32> [ undef, %115 ], [ %163, %125 ]
  %170 = phi <4 x i32> [ undef, %115 ], [ %164, %125 ]
  %171 = phi i64 [ 0, %115 ], [ %165, %125 ]
  %172 = phi <4 x i32> [ %117, %115 ], [ %163, %125 ]
  %173 = phi <4 x i32> [ zeroinitializer, %115 ], [ %164, %125 ]
  %174 = icmp eq i64 %121, 0
  br i1 %174, label %191, label %175

175:                                              ; preds = %168, %175
  %176 = phi i64 [ %188, %175 ], [ %171, %168 ]
  %177 = phi <4 x i32> [ %186, %175 ], [ %172, %168 ]
  %178 = phi <4 x i32> [ %187, %175 ], [ %173, %168 ]
  %179 = phi i64 [ %189, %175 ], [ %121, %168 ]
  %180 = getelementptr inbounds [12 x i32], [12 x i32]* @__const.main.B, i64 0, i64 %176
  %181 = bitcast i32* %180 to <4 x i32>*
  %182 = load <4 x i32>, <4 x i32>* %181, align 16, !tbaa !5
  %183 = getelementptr inbounds i32, i32* %180, i64 4
  %184 = bitcast i32* %183 to <4 x i32>*
  %185 = load <4 x i32>, <4 x i32>* %184, align 16, !tbaa !5
  %186 = add <4 x i32> %182, %177
  %187 = add <4 x i32> %185, %178
  %188 = add nuw i64 %176, 8
  %189 = add i64 %179, -1
  %190 = icmp eq i64 %189, 0
  br i1 %190, label %191, label %175, !llvm.loop !15

191:                                              ; preds = %175, %168
  %192 = phi <4 x i32> [ %169, %168 ], [ %186, %175 ]
  %193 = phi <4 x i32> [ %170, %168 ], [ %187, %175 ]
  %194 = add <4 x i32> %193, %192
  %195 = call i32 @llvm.vector.reduce.add.v4i32(<4 x i32> %194)
  %196 = icmp eq i64 %116, %113
  br i1 %196, label %216, label %197

197:                                              ; preds = %111, %191
  %198 = phi i64 [ 0, %111 ], [ %116, %191 ]
  %199 = phi i32 [ %8, %111 ], [ %195, %191 ]
  br label %200

200:                                              ; preds = %197, %200
  %201 = phi i64 [ %206, %200 ], [ %198, %197 ]
  %202 = phi i32 [ %205, %200 ], [ %199, %197 ]
  %203 = getelementptr inbounds [12 x i32], [12 x i32]* @__const.main.B, i64 0, i64 %201
  %204 = load i32, i32* %203, align 4, !tbaa !5
  %205 = add nsw i32 %204, %202
  %206 = add nuw nsw i64 %201, 1
  %207 = icmp eq i64 %206, %113
  br i1 %207, label %216, label %200, !llvm.loop !16

208:                                              ; preds = %107, %208
  %209 = phi i64 [ %214, %208 ], [ %108, %107 ]
  %210 = phi i32 [ %213, %208 ], [ %109, %107 ]
  %211 = getelementptr inbounds [12 x i32], [12 x i32]* @__const.main.A, i64 0, i64 %209
  %212 = load i32, i32* %211, align 4, !tbaa !5
  %213 = add nsw i32 %212, %210
  %214 = add nuw nsw i64 %209, 1
  %215 = icmp eq i64 %214, %23
  br i1 %215, label %216, label %208, !llvm.loop !18

216:                                              ; preds = %208, %200, %101, %191, %20, %110
  %217 = phi i32 [ %8, %110 ], [ %8, %20 ], [ %195, %191 ], [ %105, %101 ], [ %205, %200 ], [ %213, %208 ]
  %218 = call i32 (i8*, ...) @printf(i8* nonnull dereferenceable(1) getelementptr inbounds ([3 x i8], [3 x i8]* @.str.1, i64 0, i64 0), i32 %217)
  call void @llvm.lifetime.end.p0i8(i64 4, i8* nonnull %6) #4
  call void @llvm.lifetime.end.p0i8(i64 4, i8* nonnull %5) #4
  call void @llvm.lifetime.end.p0i8(i64 4, i8* nonnull %4) #4
  ret i32 0
}

; Function Attrs: argmemonly mustprogress nofree nosync nounwind willreturn
declare void @llvm.lifetime.start.p0i8(i64 immarg, i8* nocapture) #1

; Function Attrs: nofree nounwind
declare noundef i32 @__isoc99_scanf(i8* nocapture noundef readonly, ...) local_unnamed_addr #2

; Function Attrs: nofree nounwind
declare noundef i32 @printf(i8* nocapture noundef readonly, ...) local_unnamed_addr #2

; Function Attrs: argmemonly mustprogress nofree nosync nounwind willreturn
declare void @llvm.lifetime.end.p0i8(i64 immarg, i8* nocapture) #1

; Function Attrs: nofree nosync nounwind readnone willreturn
declare i32 @llvm.vector.reduce.add.v4i32(<4 x i32>) #3


!llvm.module.flags = !{!0, !1, !2, !3}
!llvm.ident = !{!4}

!0 = !{i32 1, !"wchar_size", i32 4}
!1 = !{i32 7, !"PIC Level", i32 2}
!2 = !{i32 7, !"PIE Level", i32 2}
!3 = !{i32 7, !"uwtable", i32 1}
!4 = !{!"clang version 13.0.0"}
!5 = !{!6, !6, i64 0}
!6 = !{!"int", !7, i64 0}
!7 = !{!"omnipotent char", !8, i64 0}
!8 = !{!"Simple C/C++ TBAA"}
!9 = distinct !{!9, !10, !11}
!10 = !{!"llvm.loop.mustprogress"}
!11 = !{!"llvm.loop.isvectorized", i32 1}
!12 = distinct !{!12, !13}
!13 = !{!"llvm.loop.unroll.disable"}
!14 = distinct !{!14, !10, !11}
!15 = distinct !{!15, !13}
!16 = distinct !{!16, !10, !17, !11}
!17 = !{!"llvm.loop.unroll.runtime.disable"}
!18 = distinct !{!18, !10, !17, !11}
